target datalayout = "e-m:e-p270:32:32-p271:32:32-p272:64:64-i64:64-i128:128-f80:128-n8:16:32:64-S128"
target triple = "x86_64-pc-linux-gnu"

; Function Attrs: alwaysinline nounwind uwtable
define internal void @premult2straight(ptr noundef %0) #4 {
  %2 = alloca ptr, align 8
  %3 = alloca i32, align 4
  %4 = alloca i32, align 4
  %5 = alloca i32, align 4
  %6 = alloca i32, align 4
  %7 = alloca i32, align 4
  store ptr %0, ptr %2, align 8, !tbaa !25
  call void @llvm.lifetime.start.p0(i64 4, ptr %3) #7
  %8 = load ptr, ptr %2, align 8, !tbaa !25
  %9 = getelementptr inbounds i8, ptr %8, i64 0
  %10 = load i8, ptr %9, align 1, !tbaa !40
  %11 = zext i8 %10 to i32
  store i32 %11, ptr %3, align 4, !tbaa !29
  call void @llvm.lifetime.start.p0(i64 4, ptr %4) #7
  %12 = load ptr, ptr %2, align 8, !tbaa !25
  %13 = getelementptr inbounds i8, ptr %12, i64 1
  %14 = load i8, ptr %13, align 1, !tbaa !40
  %15 = zext i8 %14 to i32
  store i32 %15, ptr %4, align 4, !tbaa !29
  call void @llvm.lifetime.start.p0(i64 4, ptr %5) #7
  %16 = load ptr, ptr %2, align 8, !tbaa !25
  %17 = getelementptr inbounds i8, ptr %16, i64 2
  %18 = load i8, ptr %17, align 1, !tbaa !40
  %19 = zext i8 %18 to i32
  store i32 %19, ptr %5, align 4, !tbaa !29
  call void @llvm.lifetime.start.p0(i64 4, ptr %6) #7
  %20 = load ptr, ptr %2, align 8, !tbaa !25
  %21 = getelementptr inbounds i8, ptr %20, i64 3
  %22 = load i8, ptr %21, align 1, !tbaa !40
  %23 = zext i8 %22 to i32
  store i32 %23, ptr %6, align 4, !tbaa !29
  %24 = load i32, ptr %6, align 4, !tbaa !29
  %25 = icmp eq i32 %24, 0
  br i1 %25, label %26, label %27

26:                                               ; preds = %1
  store i32 1, ptr %7, align 4
  br label %76

27:                                               ; preds = %1
  %28 = load i32, ptr %3, align 4, !tbaa !29
  %29 = mul nsw i32 %28, 255
  %30 = load i32, ptr %6, align 4, !tbaa !29
  %31 = sdiv i32 %29, %30
  %32 = icmp sgt i32 %31, 255
  br i1 %32, label %33, label %34

33:                                               ; preds = %27
  br label %39

34:                                               ; preds = %27
  %35 = load i32, ptr %3, align 4, !tbaa !29
  %36 = mul nsw i32 %35, 255
  %37 = load i32, ptr %6, align 4, !tbaa !29
  %38 = sdiv i32 %36, %37
  br label %39

39:                                               ; preds = %34, %33
  %40 = phi i32 [ 255, %33 ], [ %38, %34 ]
  %41 = trunc i32 %40 to i8
  %42 = load ptr, ptr %2, align 8, !tbaa !25
  %43 = getelementptr inbounds i8, ptr %42, i64 0
  store i8 %41, ptr %43, align 1, !tbaa !40
  %44 = load i32, ptr %4, align 4, !tbaa !29
  %45 = mul nsw i32 %44, 255
  %46 = load i32, ptr %6, align 4, !tbaa !29
  %47 = sdiv i32 %45, %46
  %48 = icmp sgt i32 %47, 255
  br i1 %48, label %49, label %50

49:                                               ; preds = %39
  br label %55

50:                                               ; preds = %39
  %51 = load i32, ptr %4, align 4, !tbaa !29
  %52 = mul nsw i32 %51, 255
  %53 = load i32, ptr %6, align 4, !tbaa !29
  %54 = sdiv i32 %52, %53
  br label %55

55:                                               ; preds = %50, %49
  %56 = phi i32 [ 255, %49 ], [ %54, %50 ]
  %57 = trunc i32 %56 to i8
  %58 = load ptr, ptr %2, align 8, !tbaa !25
  %59 = getelementptr inbounds i8, ptr %58, i64 1
  store i8 %57, ptr %59, align 1, !tbaa !40
  %60 = load i32, ptr %5, align 4, !tbaa !29
  %61 = mul nsw i32 %60, 255
  %62 = load i32, ptr %6, align 4, !tbaa !29
  %63 = sdiv i32 %61, %62
  %64 = icmp sgt i32 %63, 255
  br i1 %64, label %65, label %66

65:                                               ; preds = %55
  br label %71

66:                                               ; preds = %55
  %67 = load i32, ptr %5, align 4, !tbaa !29
  %68 = mul nsw i32 %67, 255
  %69 = load i32, ptr %6, align 4, !tbaa !29
  %70 = sdiv i32 %68, %69
  br label %71

71:                                               ; preds = %66, %65
  %72 = phi i32 [ 255, %65 ], [ %70, %66 ]
  %73 = trunc i32 %72 to i8
  %74 = load ptr, ptr %2, align 8, !tbaa !25
  %75 = getelementptr inbounds i8, ptr %74, i64 2
  store i8 %73, ptr %75, align 1, !tbaa !40
  store i32 0, ptr %7, align 4
  br label %76

76:                                               ; preds = %71, %26
  call void @llvm.lifetime.end.p0(i64 4, ptr %6) #7
  call void @llvm.lifetime.end.p0(i64 4, ptr %5) #7
  call void @llvm.lifetime.end.p0(i64 4, ptr %4) #7
  call void @llvm.lifetime.end.p0(i64 4, ptr %3) #7
  %77 = load i32, ptr %7, align 4
  switch i32 %77, label %79 [
    i32 0, label %78
    i32 1, label %78
  ]

78:                                               ; preds = %76, %76
  ret void

79:                                               ; preds = %76
  unreachable
}

; Function Attrs: nounwind uwtable
define internal i32 @dxt4_block(ptr noundef %0, i64 noundef %1, ptr noundef %2) #1 {
  %4 = alloca ptr, align 8
  %5 = alloca i64, align 8
  %6 = alloca ptr, align 8
  %7 = alloca i32, align 4
  %8 = alloca i32, align 4
  store ptr %0, ptr %4, align 8, !tbaa !25
  store i64 %1, ptr %5, align 8, !tbaa !27
  store ptr %2, ptr %6, align 8, !tbaa !25
  call void @llvm.lifetime.start.p0(i64 4, ptr %7) #7
  call void @llvm.lifetime.start.p0(i64 4, ptr %8) #7
  %9 = load ptr, ptr %4, align 8, !tbaa !25
  %10 = load i64, ptr %5, align 8, !tbaa !27
  %11 = load ptr, ptr %6, align 8, !tbaa !25
  call void @dxt5_block_internal(ptr noundef %9, i64 noundef %10, ptr noundef %11)
  store i32 0, ptr %8, align 4, !tbaa !29
  br label %12

12:                                               ; preds = %34, %3
  %13 = load i32, ptr %8, align 4, !tbaa !29
  %14 = icmp slt i32 %13, 4
  br i1 %14, label %15, label %37

15:                                               ; preds = %12
  store i32 0, ptr %7, align 4, !tbaa !29
  br label %16

16:                                               ; preds = %30, %15
  %17 = load i32, ptr %7, align 4, !tbaa !29
  %18 = icmp slt i32 %17, 4
  br i1 %18, label %19, label %33

19:                                               ; preds = %16
  %20 = load ptr, ptr %4, align 8, !tbaa !25
  %21 = load i32, ptr %7, align 4, !tbaa !29
  %22 = mul nsw i32 %21, 4
  %23 = sext i32 %22 to i64
  %24 = getelementptr inbounds i8, ptr %20, i64 %23
  %25 = load i32, ptr %8, align 4, !tbaa !29
  %26 = sext i32 %25 to i64
  %27 = load i64, ptr %5, align 8, !tbaa !27
  %28 = mul nsw i64 %26, %27
  %29 = getelementptr inbounds i8, ptr %24, i64 %28
  call void @premult2straight(ptr noundef %29)
  br label %30

30:                                               ; preds = %19
  %31 = load i32, ptr %7, align 4, !tbaa !29
  %32 = add nsw i32 %31, 1
  store i32 %32, ptr %7, align 4, !tbaa !29
  br label %16, !llvm.loop !34

33:                                               ; preds = %16
  br label %34

34:                                               ; preds = %33
  %35 = load i32, ptr %8, align 4, !tbaa !29
  %36 = add nsw i32 %35, 1
  store i32 %36, ptr %8, align 4, !tbaa !29
  br label %12, !llvm.loop !35

37:                                               ; preds = %12
  call void @llvm.lifetime.end.p0(i64 4, ptr %8) #7
  call void @llvm.lifetime.end.p0(i64 4, ptr %7) #7
  ret i32 16
}