; Function Attrs: nofree norecurse nosync nounwind memory(argmem: readwrite) uwtable
define internal noundef i32 @dxt4_block(ptr noundef captures(none) %0, i64 noundef %1, ptr noundef readonly captures(none) %2) #1 {
  tail call fastcc void @dxt5_block_internal(ptr noundef %0, i64 noundef %1, ptr noundef %2)
  br label %.preheader

.preheader:                                       ; preds = %3, %26
  %indvars.iv21 = phi i64 [ 0, %3 ], [ %indvars.iv.next22, %26 ]
  %4 = mul nsw i64 %1, %indvars.iv21
  %invariant.gep = getelementptr i8, ptr %0, i64 %4
  br label %5

5:                                                ; preds = %.preheader, %premult2straight.exit
  %indvars.iv = phi i64 [ 0, %.preheader ], [ %indvars.iv.next, %premult2straight.exit ]
  %6 = shl nuw nsw i64 %indvars.iv, 2
  %gep = getelementptr i8, ptr %invariant.gep, i64 %6
  %7 = getelementptr inbounds nuw i8, ptr %gep, i64 3
  %8 = load i8, ptr %7, align 1, !tbaa !23
  %9 = icmp eq i8 %8, 0
  br i1 %9, label %premult2straight.exit, label %10

10:                                               ; preds = %5
  %11 = getelementptr inbounds nuw i8, ptr %gep, i64 2
  %12 = load i8, ptr %11, align 1, !tbaa !23
  %13 = zext i8 %12 to i16
  %14 = getelementptr inbounds nuw i8, ptr %gep, i64 1
  %15 = load i8, ptr %14, align 1, !tbaa !23
  %16 = zext i8 %15 to i16
  %17 = load i8, ptr %gep, align 1, !tbaa !23
  %18 = zext i8 %17 to i16
  %.lhs.trunc = mul nuw i16 %18, 255
  %.rhs.trunc = zext i8 %8 to i16
  %19 = udiv i16 %.lhs.trunc, %.rhs.trunc
  %spec.select.i17 = tail call i16 @llvm.umin.i16(i16 %19, i16 255)
  %spec.select.i = trunc nuw i16 %spec.select.i17 to i8
  store i8 %spec.select.i, ptr %gep, align 1, !tbaa !23
  %.lhs.trunc11 = mul nuw i16 %16, 255
  %20 = udiv i16 %.lhs.trunc11, %.rhs.trunc
  %21 = tail call i16 @llvm.umin.i16(i16 %20, i16 255)
  %22 = trunc nuw i16 %21 to i8
  store i8 %22, ptr %14, align 1, !tbaa !23
  %.lhs.trunc14 = mul nuw i16 %13, 255
  %23 = udiv i16 %.lhs.trunc14, %.rhs.trunc
  %24 = tail call i16 @llvm.umin.i16(i16 %23, i16 255)
  %25 = trunc nuw i16 %24 to i8
  store i8 %25, ptr %11, align 1, !tbaa !23
  br label %premult2straight.exit

premult2straight.exit:                            ; preds = %5, %10
  %indvars.iv.next = add nuw nsw i64 %indvars.iv, 1
  %exitcond.not = icmp eq i64 %indvars.iv.next, 4
  br i1 %exitcond.not, label %26, label %5, !llvm.loop !27

26:                                               ; preds = %premult2straight.exit
  %indvars.iv.next22 = add nuw nsw i64 %indvars.iv21, 1
  %exitcond24.not = icmp eq i64 %indvars.iv.next22, 4
  br i1 %exitcond24.not, label %27, label %.preheader, !llvm.loop !28

27:                                               ; preds = %26
  ret i32 16
}